; Function Attrs: mustprogress uwtable
define hidden void @_ZN2cv12KAZEFeatures17Feature_DetectionERSt6vectorINS_8KeyPointESaIS2_EE(ptr noundef nonnull align 8 dereferenceable(152) %0, ptr noundef nonnull align 8 captures(none) dereferenceable(24) %1) local_unnamed_addr #0 align 2 personality ptr @__gxx_personality_v0 {
  %3 = load ptr, ptr %1, align 8, !tbaa !95
  %4 = getelementptr inbounds nuw i8, ptr %1, i64 8
  %5 = load ptr, ptr %4, align 8, !tbaa !137
  %.not.i.i = icmp eq ptr %5, %3
  br i1 %.not.i.i, label %_ZNSt6vectorIN2cv8KeyPointESaIS1_EE5clearEv.exit, label %6

6:                                                ; preds = %2
  store ptr %3, ptr %4, align 8, !tbaa !137
  br label %_ZNSt6vectorIN2cv8KeyPointESaIS1_EE5clearEv.exit

_ZNSt6vectorIN2cv8KeyPointESaIS1_EE5clearEv.exit: ; preds = %2, %6
  tail call void @_ZN2cv12KAZEFeatures25Compute_Detector_ResponseEv(ptr noundef nonnull align 8 dereferenceable(152) %0)
  tail call void @_ZN2cv12KAZEFeatures19Determinant_HessianERSt6vectorINS_8KeyPointESaIS2_EE(ptr noundef nonnull align 8 dereferenceable(152) %0, ptr noundef nonnull align 8 dereferenceable(24) %1)
  tail call void @_ZN2cv12KAZEFeatures22Do_Subpixel_RefinementERSt6vectorINS_8KeyPointESaIS2_EE(ptr noundef nonnull align 8 dereferenceable(152) %0, ptr noundef nonnull align 8 dereferenceable(24) %1)
  ret void
}